target datalayout = "e-m:e-p270:32:32-p271:32:32-p272:64:64-i64:64-i128:128-f80:128-n8:16:32:64-S128"
target triple = "x86_64-pc-linux-gnu"

%struct.UString = type { ptr, i32, i32 }
%"class.icu_77::UnicodeString" = type { %"class.icu_77::Replaceable", %"union.icu_77::UnicodeString::StackBufferOrFields" }
%"class.icu_77::Replaceable" = type { %"class.icu_77::UObject" }
%"class.icu_77::UObject" = type { ptr }
%"union.icu_77::UnicodeString::StackBufferOrFields" = type { %struct.anon.0, [32 x i8] }
%struct.anon.0 = type { i16, i32, i32, ptr }
%struct.anon = type { i16, [27 x i16] }

@_ZL3out = internal global ptr null, align 8
@_ZL8tabCount = internal global i32 0, align 4
@.str.52 = private unnamed_addr constant [7 x i8] c"<note>\00", align 1
@.str.53 = private unnamed_addr constant [8 x i8] c"</note>\00", align 1
@.str.93 = private unnamed_addr constant [5 x i8] c"    \00", align 1

; Function Attrs: inlinehint mustprogress nounwind uwtable
define linkonce_odr dso_local noundef i32 @_ZNK6icu_7713UnicodeString14getShortLengthEv(ptr noundef nonnull align 8 dereferenceable(64) %0) #3 comdat align 2 {
  %2 = alloca ptr, align 8
  store ptr %0, ptr %2, align 8, !tbaa !74
  %3 = load ptr, ptr %2, align 8
  %4 = getelementptr inbounds nuw %"class.icu_77::UnicodeString", ptr %3, i32 0, i32 1
  %5 = getelementptr inbounds nuw %struct.anon.0, ptr %4, i32 0, i32 0
  %6 = load i16, ptr %5, align 8, !tbaa !14
  %7 = sext i16 %6 to i32
  %8 = ashr i32 %7, 5
  ret i32 %8
}

; Function Attrs: inlinehint mustprogress nounwind uwtable
define linkonce_odr dso_local noundef signext i8 @_ZNK6icu_7713UnicodeString14hasShortLengthEv(ptr noundef nonnull align 8 dereferenceable(64) %0) #3 comdat align 2 {
  %2 = alloca ptr, align 8
  store ptr %0, ptr %2, align 8, !tbaa !74
  %3 = load ptr, ptr %2, align 8
  %4 = getelementptr inbounds nuw %"class.icu_77::UnicodeString", ptr %3, i32 0, i32 1
  %5 = getelementptr inbounds nuw %struct.anon.0, ptr %4, i32 0, i32 0
  %6 = load i16, ptr %5, align 8, !tbaa !14
  %7 = sext i16 %6 to i32
  %8 = icmp sge i32 %7, 0
  %9 = zext i1 %8 to i8
  ret i8 %9
}

; Function Attrs: inlinehint mustprogress uwtable
define linkonce_odr dso_local noundef i32 @_ZNK6icu_7713UnicodeString6lengthEv(ptr noundef nonnull align 8 dereferenceable(64) %0) #11 comdat align 2 {
  %2 = alloca ptr, align 8
  store ptr %0, ptr %2, align 8, !tbaa !74
  %3 = load ptr, ptr %2, align 8
  %4 = call noundef signext i8 @_ZNK6icu_7713UnicodeString14hasShortLengthEv(ptr noundef nonnull align 8 dereferenceable(64) %3)
  %5 = icmp ne i8 %4, 0
  br i1 %5, label %6, label %8

6:                                                ; preds = %1
  %7 = call noundef i32 @_ZNK6icu_7713UnicodeString14getShortLengthEv(ptr noundef nonnull align 8 dereferenceable(64) %3)
  br label %12

8:                                                ; preds = %1
  %9 = getelementptr inbounds nuw %"class.icu_77::UnicodeString", ptr %3, i32 0, i32 1
  %10 = getelementptr inbounds nuw %struct.anon.0, ptr %9, i32 0, i32 1
  %11 = load i32, ptr %10, align 4, !tbaa !14
  br label %12

12:                                               ; preds = %8, %6
  %13 = phi i32 [ %7, %6 ], [ %11, %8 ]
  ret i32 %13
}

; Function Attrs: inlinehint mustprogress nounwind uwtable
define linkonce_odr dso_local noundef ptr @_ZN6icu_7710toUCharPtrEPKDs(ptr noundef %0) #3 comdat {
  %2 = alloca ptr, align 8
  store ptr %0, ptr %2, align 8, !tbaa !82
  %3 = load ptr, ptr %2, align 8, !tbaa !82
  call void asm sideeffect "", "rm,~{memory},~{dirflag},~{fpsr},~{flags}"(ptr %3) #12, !srcloc !96
  %4 = load ptr, ptr %2, align 8, !tbaa !82
  ret ptr %4
}

; Function Attrs: inlinehint mustprogress nounwind uwtable
define linkonce_odr dso_local noundef ptr @_ZNK6icu_7713UnicodeString9getBufferEv(ptr noundef nonnull align 8 dereferenceable(64) %0) #3 comdat align 2 {
  %2 = alloca ptr, align 8
  %3 = alloca ptr, align 8
  store ptr %0, ptr %3, align 8, !tbaa !74
  %4 = load ptr, ptr %3, align 8
  %5 = getelementptr inbounds nuw %"class.icu_77::UnicodeString", ptr %4, i32 0, i32 1
  %6 = getelementptr inbounds nuw %struct.anon.0, ptr %5, i32 0, i32 0
  %7 = load i16, ptr %6, align 8, !tbaa !14
  %8 = sext i16 %7 to i32
  %9 = and i32 %8, 17
  %10 = icmp ne i32 %9, 0
  br i1 %10, label %11, label %12

11:                                               ; preds = %1
  store ptr null, ptr %2, align 8
  br label %27

12:                                               ; preds = %1
  %13 = getelementptr inbounds nuw %"class.icu_77::UnicodeString", ptr %4, i32 0, i32 1
  %14 = getelementptr inbounds nuw %struct.anon.0, ptr %13, i32 0, i32 0
  %15 = load i16, ptr %14, align 8, !tbaa !14
  %16 = sext i16 %15 to i32
  %17 = and i32 %16, 2
  %18 = icmp ne i32 %17, 0
  br i1 %18, label %19, label %23

19:                                               ; preds = %12
  %20 = getelementptr inbounds nuw %"class.icu_77::UnicodeString", ptr %4, i32 0, i32 1
  %21 = getelementptr inbounds nuw %struct.anon, ptr %20, i32 0, i32 1
  %22 = getelementptr inbounds [27 x i16], ptr %21, i64 0, i64 0
  store ptr %22, ptr %2, align 8
  br label %27

23:                                               ; preds = %12
  %24 = getelementptr inbounds nuw %"class.icu_77::UnicodeString", ptr %4, i32 0, i32 1
  %25 = getelementptr inbounds nuw %struct.anon.0, ptr %24, i32 0, i32 3
  %26 = load ptr, ptr %25, align 8, !tbaa !14
  store ptr %26, ptr %2, align 8
  br label %27

27:                                               ; preds = %23, %19, %11
  %28 = load ptr, ptr %2, align 8
  ret ptr %28
}

; Function Attrs: mustprogress uwtable
define internal noundef i32 @_ZL15write_utf8_fileP11_FileStreamN6icu_7713UnicodeStringE(ptr noundef %0, ptr noundef %1) #2 {
  %3 = alloca ptr, align 8
  %4 = alloca ptr, align 8
  %5 = alloca i32, align 4
  %6 = alloca i32, align 4
  %7 = alloca ptr, align 8
  %8 = alloca i32, align 4
  store ptr %0, ptr %3, align 8, !tbaa !27
  store ptr %1, ptr %4, align 8, !tbaa !74
  call void @llvm.lifetime.start.p0(i64 4, ptr %5) #12
  store i32 0, ptr %5, align 4, !tbaa !19
  call void @llvm.lifetime.start.p0(i64 4, ptr %6) #12
  store i32 0, ptr %6, align 4, !tbaa !9
  %9 = call noundef ptr @_ZNK6icu_7713UnicodeString9getBufferEv(ptr noundef nonnull align 8 dereferenceable(64) %1)
  %10 = call noundef ptr @_ZN6icu_7710toUCharPtrEPKDs(ptr noundef %9)
  %11 = call noundef i32 @_ZNK6icu_7713UnicodeString6lengthEv(ptr noundef nonnull align 8 dereferenceable(64) %1)
  %12 = call ptr @u_strToUTF8_77(ptr noundef null, i32 noundef 0, ptr noundef %6, ptr noundef %10, i32 noundef %11, ptr noundef %5)
  call void @llvm.lifetime.start.p0(i64 8, ptr %7) #12
  %13 = load i32, ptr %6, align 4, !tbaa !9
  %14 = sext i32 %13 to i64
  %15 = call noalias ptr @uprv_malloc_77(i64 noundef %14) #14
  store ptr %15, ptr %7, align 8, !tbaa !4
  store i32 0, ptr %5, align 4, !tbaa !19
  %16 = load ptr, ptr %7, align 8, !tbaa !4
  %17 = load i32, ptr %6, align 4, !tbaa !9
  %18 = call noundef ptr @_ZNK6icu_7713UnicodeString9getBufferEv(ptr noundef nonnull align 8 dereferenceable(64) %1)
  %19 = call noundef ptr @_ZN6icu_7710toUCharPtrEPKDs(ptr noundef %18)
  %20 = call noundef i32 @_ZNK6icu_7713UnicodeString6lengthEv(ptr noundef nonnull align 8 dereferenceable(64) %1)
  %21 = call ptr @u_strToUTF8_77(ptr noundef %16, i32 noundef %17, ptr noundef %6, ptr noundef %19, i32 noundef %20, ptr noundef %5)
  call void @llvm.lifetime.start.p0(i64 4, ptr %8) #12
  %22 = load ptr, ptr %3, align 8, !tbaa !27
  %23 = load ptr, ptr %7, align 8, !tbaa !4
  %24 = load i32, ptr %6, align 4, !tbaa !9
  %25 = call i32 @T_FileStream_write(ptr noundef %22, ptr noundef %23, i32 noundef %24)
  store i32 %25, ptr %8, align 4, !tbaa !9
  %26 = load ptr, ptr %7, align 8, !tbaa !4
  call void @uprv_free_77(ptr noundef %26)
  %27 = load i32, ptr %8, align 4, !tbaa !9
  call void @llvm.lifetime.end.p0(i64 4, ptr %8) #12
  call void @llvm.lifetime.end.p0(i64 8, ptr %7) #12
  call void @llvm.lifetime.end.p0(i64 4, ptr %6) #12
  call void @llvm.lifetime.end.p0(i64 4, ptr %5) #12
  ret i32 %27
}

; Function Attrs: mustprogress uwtable
define internal void @_ZL10write_tabsP11_FileStream(ptr noundef %0) #2 personality ptr @__gxx_personality_v0 {
  %2 = alloca ptr, align 8
  %3 = alloca i32, align 4
  %4 = alloca %"class.icu_77::UnicodeString", align 8
  %5 = alloca ptr, align 8
  %6 = alloca i32, align 4
  store ptr %0, ptr %2, align 8, !tbaa !27
  call void @llvm.lifetime.start.p0(i64 4, ptr %3) #12
  store i32 0, ptr %3, align 4, !tbaa !9
  br label %7

7:                                                ; preds = %15, %1
  %8 = load i32, ptr %3, align 4, !tbaa !9
  %9 = load i32, ptr @_ZL8tabCount, align 4, !tbaa !9
  %10 = icmp sle i32 %8, %9
  br i1 %10, label %11, label %22

11:                                               ; preds = %7
  %12 = load ptr, ptr %2, align 8, !tbaa !27
  call void @_ZN6icu_7713UnicodeStringC1EPKc(ptr noundef nonnull align 8 dereferenceable(64) %4, ptr noundef @.str.93)
  %13 = invoke noundef i32 @_ZL15write_utf8_fileP11_FileStreamN6icu_7713UnicodeStringE(ptr noundef %12, ptr noundef %4)
          to label %14 unwind label %18

14:                                               ; preds = %11
  call void @_ZN6icu_7713UnicodeStringD1Ev(ptr noundef nonnull align 8 dereferenceable(64) %4) #12
  br label %15

15:                                               ; preds = %14
  %16 = load i32, ptr %3, align 4, !tbaa !9
  %17 = add nsw i32 %16, 1
  store i32 %17, ptr %3, align 4, !tbaa !9
  br label %7, !llvm.loop !76

18:                                               ; preds = %11
  %19 = landingpad { ptr, i32 }
          cleanup
  %20 = extractvalue { ptr, i32 } %19, 0
  store ptr %20, ptr %5, align 8
  %21 = extractvalue { ptr, i32 } %19, 1
  store i32 %21, ptr %6, align 4
  call void @_ZN6icu_7713UnicodeStringD1Ev(ptr noundef nonnull align 8 dereferenceable(64) %4) #12
  call void @llvm.lifetime.end.p0(i64 4, ptr %3) #12
  br label %23

22:                                               ; preds = %7
  call void @llvm.lifetime.end.p0(i64 4, ptr %3) #12
  ret void

23:                                               ; preds = %18
  %24 = load ptr, ptr %5, align 8
  %25 = load i32, ptr %6, align 4
  %26 = insertvalue { ptr, i32 } poison, ptr %24, 0
  %27 = insertvalue { ptr, i32 } %26, i32 %25, 1
  resume { ptr, i32 } %27
}

; Function Attrs: inlinehint mustprogress nounwind uwtable
define internal noundef signext i8 @_ZL9U_FAILURE10UErrorCode(i32 noundef %0) #3 {
  %2 = alloca i32, align 4
  store i32 %0, ptr %2, align 4, !tbaa !19
  %3 = load i32, ptr %2, align 4, !tbaa !19
  %4 = icmp sgt i32 %3, 0
  %5 = zext i1 %4 to i8
  ret i8 %5
}

; Function Attrs: mustprogress uwtable
define internal void @_ZL17printNoteElementsPK7UStringP10UErrorCode(ptr noundef %0, ptr noundef %1) #2 {
  %3 = alloca ptr, align 8
  %4 = alloca ptr, align 8
  %5 = alloca i32, align 4
  %6 = alloca ptr, align 8
  %7 = alloca i32, align 4
  %8 = alloca i32, align 4
  %9 = alloca i32, align 4
  %10 = alloca i32, align 4
  store ptr %0, ptr %3, align 8, !tbaa !90
  store ptr %1, ptr %4, align 8, !tbaa !18
  call void @llvm.lifetime.start.p0(i64 4, ptr %5) #12
  store i32 0, ptr %5, align 4, !tbaa !9
  call void @llvm.lifetime.start.p0(i64 8, ptr %6) #12
  store ptr null, ptr %6, align 8, !tbaa !82
  call void @llvm.lifetime.start.p0(i64 4, ptr %7) #12
  store i32 0, ptr %7, align 4, !tbaa !9
  call void @llvm.lifetime.start.p0(i64 4, ptr %8) #12
  store i32 0, ptr %8, align 4, !tbaa !9
  call void @llvm.lifetime.start.p0(i64 4, ptr %9) #12
  %11 = load ptr, ptr %3, align 8, !tbaa !90
  %12 = icmp eq ptr %11, null
  br i1 %12, label %13, label %14

13:                                               ; preds = %2
  store i32 1, ptr %10, align 4
  br label %72

14:                                               ; preds = %2
  %15 = load ptr, ptr %3, align 8, !tbaa !90
  %16 = getelementptr inbounds nuw %struct.UString, ptr %15, i32 0, i32 1
  %17 = load i32, ptr %16, align 8, !tbaa !92
  store i32 %17, ptr %5, align 4, !tbaa !9
  %18 = load i32, ptr %5, align 4, !tbaa !9
  %19 = mul nsw i32 2, %18
  %20 = sext i32 %19 to i64
  %21 = call noalias ptr @uprv_malloc_77(i64 noundef %20) #14
  store ptr %21, ptr %6, align 8, !tbaa !82
  %22 = load ptr, ptr %3, align 8, !tbaa !90
  %23 = getelementptr inbounds nuw %struct.UString, ptr %22, i32 0, i32 0
  %24 = load ptr, ptr %23, align 8, !tbaa !93
  %25 = load ptr, ptr %3, align 8, !tbaa !90
  %26 = getelementptr inbounds nuw %struct.UString, ptr %25, i32 0, i32 1
  %27 = load i32, ptr %26, align 8, !tbaa !92
  %28 = load ptr, ptr %4, align 8, !tbaa !18
  %29 = call i32 @getCount(ptr noundef %24, i32 noundef %27, i32 noundef 1, ptr noundef %28)
  store i32 %29, ptr %8, align 4, !tbaa !9
  %30 = load ptr, ptr %4, align 8, !tbaa !18
  %31 = load i32, ptr %30, align 4, !tbaa !19
  %32 = call noundef signext i8 @_ZL9U_FAILURE10UErrorCode(i32 noundef %31)
  %33 = icmp ne i8 %32, 0
  br i1 %33, label %34, label %36

34:                                               ; preds = %14
  %35 = load ptr, ptr %6, align 8, !tbaa !82
  call void @uprv_free_77(ptr noundef %35)
  store i32 1, ptr %10, align 4
  br label %72

36:                                               ; preds = %14
  store i32 0, ptr %9, align 4, !tbaa !9
  br label %37

37:                                               ; preds = %67, %36
  %38 = load i32, ptr %9, align 4, !tbaa !9
  %39 = load i32, ptr %8, align 4, !tbaa !9
  %40 = icmp slt i32 %38, %39
  br i1 %40, label %41, label %70

41:                                               ; preds = %37
  %42 = load ptr, ptr %3, align 8, !tbaa !90
  %43 = getelementptr inbounds nuw %struct.UString, ptr %42, i32 0, i32 0
  %44 = load ptr, ptr %43, align 8, !tbaa !93
  %45 = load ptr, ptr %3, align 8, !tbaa !90
  %46 = getelementptr inbounds nuw %struct.UString, ptr %45, i32 0, i32 1
  %47 = load i32, ptr %46, align 8, !tbaa !92
  %48 = load i32, ptr %5, align 4, !tbaa !9
  %49 = load i32, ptr %9, align 4, !tbaa !9
  %50 = load ptr, ptr %4, align 8, !tbaa !18
  %51 = call i32 @getAt(ptr noundef %44, i32 noundef %47, ptr noundef %6, i32 noundef %48, i32 noundef %49, i32 noundef 1, ptr noundef %50)
  store i32 %51, ptr %7, align 4, !tbaa !9
  %52 = load ptr, ptr %4, align 8, !tbaa !18
  %53 = load i32, ptr %52, align 4, !tbaa !19
  %54 = call noundef signext i8 @_ZL9U_FAILURE10UErrorCode(i32 noundef %53)
  %55 = icmp ne i8 %54, 0
  br i1 %55, label %56, label %58

56:                                               ; preds = %41
  %57 = load ptr, ptr %6, align 8, !tbaa !82
  call void @uprv_free_77(ptr noundef %57)
  store i32 1, ptr %10, align 4
  br label %72

58:                                               ; preds = %41
  %59 = load i32, ptr %7, align 4, !tbaa !9
  %60 = icmp sgt i32 %59, 0
  br i1 %60, label %61, label %66

61:                                               ; preds = %58
  %62 = load ptr, ptr @_ZL3out, align 8, !tbaa !27
  call void @_ZL10write_tabsP11_FileStream(ptr noundef %62)
  %63 = load ptr, ptr %6, align 8, !tbaa !82
  %64 = load i32, ptr %7, align 4, !tbaa !9
  %65 = load ptr, ptr %4, align 8, !tbaa !18
  call void @_ZL5printPDsiPKcS1_P10UErrorCode(ptr noundef %63, i32 noundef %64, ptr noundef @.str.52, ptr noundef @.str.53, ptr noundef %65)
  br label %66

66:                                               ; preds = %61, %58
  br label %67

67:                                               ; preds = %66
  %68 = load i32, ptr %9, align 4, !tbaa !9
  %69 = add nsw i32 %68, 1
  store i32 %69, ptr %9, align 4, !tbaa !9
  br label %37, !llvm.loop !94

70:                                               ; preds = %37
  %71 = load ptr, ptr %6, align 8, !tbaa !82
  call void @uprv_free_77(ptr noundef %71)
  store i32 0, ptr %10, align 4
  br label %72

72:                                               ; preds = %70, %56, %34, %13
  call void @llvm.lifetime.end.p0(i64 4, ptr %9) #12
  call void @llvm.lifetime.end.p0(i64 4, ptr %8) #12
  call void @llvm.lifetime.end.p0(i64 4, ptr %7) #12
  call void @llvm.lifetime.end.p0(i64 8, ptr %6) #12
  call void @llvm.lifetime.end.p0(i64 4, ptr %5) #12
  %73 = load i32, ptr %10, align 4
  switch i32 %73, label %75 [
    i32 0, label %74
    i32 1, label %74
  ]

74:                                               ; preds = %72, %72
  ret void

75:                                               ; preds = %72
  unreachable
}