; Function Attrs: mustprogress uwtable
define internal fastcc void @_ZL17printNoteElementsPK7UStringP10UErrorCode(ptr noundef nonnull readonly captures(none) %0, ptr noundef %1) unnamed_addr #2 personality ptr @__gxx_personality_v0 {
  %3 = alloca i32, align 4
  %4 = alloca i32, align 4
  %5 = alloca %"class.icu_77::UnicodeString", align 8
  %6 = alloca ptr, align 8
  call void @llvm.lifetime.start.p0(i64 8, ptr nonnull %6) #13
  %7 = getelementptr inbounds nuw i8, ptr %0, i64 8
  %8 = load i32, ptr %7, align 8, !tbaa !65
  %9 = shl nsw i32 %8, 1
  %10 = sext i32 %9 to i64
  %11 = tail call noalias ptr @uprv_malloc_77(i64 noundef %10) #14
  store ptr %11, ptr %6, align 8, !tbaa !63
  %12 = load ptr, ptr %0, align 8, !tbaa !64
  %13 = load i32, ptr %7, align 8, !tbaa !65
  %14 = tail call i32 @getCount(ptr noundef %12, i32 noundef %13, i32 noundef 1, ptr noundef %1)
  %15 = load i32, ptr %1, align 4, !tbaa !13
  %16 = icmp slt i32 %15, 1
  br i1 %16, label %.preheader, label %22

.preheader:                                       ; preds = %2
  %17 = icmp sgt i32 %14, 0
  br i1 %17, label %.lr.ph, label %._crit_edge

.lr.ph:                                           ; preds = %.preheader
  %18 = getelementptr inbounds nuw i8, ptr %5, i64 8
  %19 = getelementptr inbounds nuw i8, ptr %5, i64 10
  %20 = getelementptr inbounds nuw i8, ptr %5, i64 24
  %21 = getelementptr inbounds nuw i8, ptr %5, i64 12
  br label %23

22:                                               ; preds = %2
  tail call void @uprv_free_77(ptr noundef %11)
  br label %73

23:                                               ; preds = %.lr.ph, %70
  %.025 = phi i32 [ 0, %.lr.ph ], [ %71, %70 ]
  %24 = load ptr, ptr %0, align 8, !tbaa !64
  %25 = load i32, ptr %7, align 8, !tbaa !65
  %26 = call i32 @getAt(ptr noundef %24, i32 noundef %25, ptr noundef nonnull %6, i32 noundef %8, i32 noundef %.025, i32 noundef 1, ptr noundef nonnull %1)
  %27 = load i32, ptr %1, align 4, !tbaa !13
  %28 = icmp slt i32 %27, 1
  br i1 %28, label %31, label %29

29:                                               ; preds = %23
  %30 = load ptr, ptr %6, align 8, !tbaa !63
  call void @uprv_free_77(ptr noundef %30)
  br label %73

31:                                               ; preds = %23
  %32 = icmp sgt i32 %26, 0
  br i1 %32, label %33, label %70

33:                                               ; preds = %31
  %34 = load ptr, ptr @_ZL3out, align 8, !tbaa !21
  call void @llvm.lifetime.start.p0(i64 64, ptr nonnull %5)
  %35 = load i32, ptr @_ZL8tabCount, align 4, !tbaa !6
  %.not4.i = icmp slt i32 %35, 0
  br i1 %.not4.i, label %_ZL10write_tabsP11_FileStream.exit, label %.lr.ph.i

.lr.ph.i:                                         ; preds = %33, %64
  %.05.i = phi i32 [ %65, %64 ], [ 0, %33 ]
  call void @_ZN6icu_7713UnicodeStringC1EPKc(ptr noundef nonnull align 8 dereferenceable(64) %5, ptr noundef nonnull @.str.93)
  call void @llvm.lifetime.start.p0(i64 4, ptr nonnull %3) #13
  store i32 0, ptr %3, align 4, !tbaa !13
  call void @llvm.lifetime.start.p0(i64 4, ptr nonnull %4) #13
  store i32 0, ptr %4, align 4, !tbaa !6
  %36 = load i16, ptr %18, align 8, !tbaa !11
  %37 = and i16 %36, 17
  %.not.i.i = icmp eq i16 %37, 0
  %38 = and i16 %36, 2
  %.not2.i.i = icmp eq i16 %38, 0
  %39 = load ptr, ptr %20, align 8
  %spec.select = select i1 %.not2.i.i, ptr %39, ptr %19
  %.0.i.i = select i1 %.not.i.i, ptr %spec.select, ptr null
  call void asm sideeffect "", "rm,~{memory},~{dirflag},~{fpsr},~{flags}"(ptr %.0.i.i) #13, !srcloc !24
  %40 = load i16, ptr %18, align 8, !tbaa !11
  %41 = icmp slt i16 %40, 0
  %42 = ashr i16 %40, 5
  %43 = sext i16 %42 to i32
  %44 = load i32, ptr %21, align 4
  %45 = select i1 %41, i32 %44, i32 %43
  %46 = invoke ptr @u_strToUTF8_77(ptr noundef null, i32 noundef 0, ptr noundef nonnull %4, ptr noundef %.0.i.i, i32 noundef %45, ptr noundef nonnull %3)
          to label %.noexc unwind label %67

.noexc:                                           ; preds = %.lr.ph.i
  %47 = load i32, ptr %4, align 4, !tbaa !6
  %48 = sext i32 %47 to i64
  %49 = invoke noalias ptr @uprv_malloc_77(i64 noundef %48) #14
          to label %.noexc21 unwind label %67

.noexc21:                                         ; preds = %.noexc
  store i32 0, ptr %3, align 4, !tbaa !13
  %50 = load i32, ptr %4, align 4, !tbaa !6
  %51 = load i16, ptr %18, align 8, !tbaa !11
  %52 = and i16 %51, 17
  %.not.i4.i = icmp eq i16 %52, 0
  %53 = and i16 %51, 2
  %.not2.i6.i = icmp eq i16 %53, 0
  %54 = load ptr, ptr %20, align 8
  %spec.select26 = select i1 %.not2.i6.i, ptr %54, ptr %19
  %.0.i5.i = select i1 %.not.i4.i, ptr %spec.select26, ptr null
  call void asm sideeffect "", "rm,~{memory},~{dirflag},~{fpsr},~{flags}"(ptr %.0.i5.i) #13, !srcloc !24
  %55 = load i16, ptr %18, align 8, !tbaa !11
  %56 = icmp slt i16 %55, 0
  %57 = ashr i16 %55, 5
  %58 = sext i16 %57 to i32
  %59 = load i32, ptr %21, align 4
  %60 = select i1 %56, i32 %59, i32 %58
  %61 = invoke ptr @u_strToUTF8_77(ptr noundef %49, i32 noundef %50, ptr noundef nonnull %4, ptr noundef %.0.i5.i, i32 noundef %60, ptr noundef nonnull %3)
          to label %.noexc22 unwind label %67

.noexc22:                                         ; preds = %.noexc21
  %62 = load i32, ptr %4, align 4, !tbaa !6
  %63 = invoke i32 @T_FileStream_write(ptr noundef %34, ptr noundef %49, i32 noundef %62)
          to label %.noexc23 unwind label %67

.noexc23:                                         ; preds = %.noexc22
  invoke void @uprv_free_77(ptr noundef %49)
          to label %64 unwind label %67

64:                                               ; preds = %.noexc23
  call void @llvm.lifetime.end.p0(i64 4, ptr nonnull %4) #13
  call void @llvm.lifetime.end.p0(i64 4, ptr nonnull %3) #13
  call void @_ZN6icu_7713UnicodeStringD1Ev(ptr noundef nonnull align 8 dereferenceable(64) %5) #13
  %65 = add nuw nsw i32 %.05.i, 1
  %66 = load i32, ptr @_ZL8tabCount, align 4, !tbaa !6
  %.not.not.i = icmp slt i32 %.05.i, %66
  br i1 %.not.not.i, label %.lr.ph.i, label %_ZL10write_tabsP11_FileStream.exit, !llvm.loop !23

67:                                               ; preds = %.noexc23, %.noexc22, %.noexc21, %.noexc, %.lr.ph.i
  %68 = landingpad { ptr, i32 }
          cleanup
  call void @_ZN6icu_7713UnicodeStringD1Ev(ptr noundef nonnull align 8 dereferenceable(64) %5) #13
  resume { ptr, i32 } %68

_ZL10write_tabsP11_FileStream.exit:               ; preds = %64, %33
  call void @llvm.lifetime.end.p0(i64 64, ptr nonnull %5)
  %69 = load ptr, ptr %6, align 8, !tbaa !63
  call fastcc void @_ZL5printPDsiPKcS1_P10UErrorCode(ptr noundef %69, i32 noundef %26, ptr noundef nonnull @.str.52, ptr noundef nonnull @.str.53, ptr noundef nonnull %1)
  br label %70

70:                                               ; preds = %31, %_ZL10write_tabsP11_FileStream.exit
  %71 = add nuw nsw i32 %.025, 1
  %exitcond.not = icmp eq i32 %71, %14
  br i1 %exitcond.not, label %._crit_edge.loopexit, label %23, !llvm.loop !69

._crit_edge.loopexit:                             ; preds = %70
  %.pre = load ptr, ptr %6, align 8, !tbaa !63
  br label %._crit_edge

._crit_edge:                                      ; preds = %._crit_edge.loopexit, %.preheader
  %72 = phi ptr [ %.pre, %._crit_edge.loopexit ], [ %11, %.preheader ]
  call void @uprv_free_77(ptr noundef %72)
  br label %73

73:                                               ; preds = %._crit_edge, %29, %22
  call void @llvm.lifetime.end.p0(i64 8, ptr nonnull %6) #13
  ret void
}